target datalayout = "e-m:e-p270:32:32-p271:32:32-p272:64:64-i64:64-i128:128-f80:128-n8:16:32:64-S128"
target triple = "x86_64-pc-linux-gnu"

%struct.Dec_Node_t_ = type { %struct.Dec_Edge_t_, %struct.Dec_Edge_t_, %union.anon, i32 }
%struct.Dec_Edge_t_ = type { i32 }
%union.anon = type { ptr }
%struct.Dec_Graph_t_ = type { i32, i32, i32, i32, ptr, %struct.Dec_Edge_t_ }
%struct.Abc_Ntk_t_ = type { i32, i32, ptr, ptr, ptr, ptr, ptr, ptr, ptr, ptr, ptr, ptr, ptr, [11 x i32], i32, i32, i32, i32, ptr, i32, ptr, ptr, i32, i32, i32, double, i32, %struct.Vec_Int_t_, ptr, ptr, ptr, ptr, ptr, float, i32, ptr, ptr, ptr, ptr, ptr, ptr, ptr, ptr, ptr, ptr, ptr, ptr, ptr, ptr, ptr, ptr, ptr, ptr, ptr, ptr, ptr }
%struct.Vec_Int_t_ = type { i32, i32, ptr }

; Function Attrs: nounwind uwtable
define internal ptr @Dec_GraphNode(ptr noundef %0, i32 noundef %1) #0 {
  %3 = alloca ptr, align 8
  %4 = alloca i32, align 4
  store ptr %0, ptr %3, align 8
  store i32 %1, ptr %4, align 4
  %5 = load ptr, ptr %3, align 8
  %6 = getelementptr inbounds %struct.Dec_Graph_t_, ptr %5, i32 0, i32 4
  %7 = load ptr, ptr %6, align 8
  %8 = load i32, ptr %4, align 4
  %9 = sext i32 %8 to i64
  %10 = getelementptr inbounds %struct.Dec_Node_t_, ptr %7, i64 %9
  ret ptr %10
}

; Function Attrs: nounwind uwtable
define internal ptr @Dec_GraphVar(ptr noundef %0) #0 {
  %2 = alloca ptr, align 8
  store ptr %0, ptr %2, align 8
  %3 = load ptr, ptr %2, align 8
  %4 = load ptr, ptr %2, align 8
  %5 = getelementptr inbounds %struct.Dec_Graph_t_, ptr %4, i32 0, i32 5
  %6 = load i32, ptr %5, align 8
  %7 = lshr i32 %6, 1
  %8 = and i32 %7, 1073741823
  %9 = call ptr @Dec_GraphNode(ptr noundef %3, i32 noundef %8)
  ret ptr %9
}

; Function Attrs: nounwind uwtable
define internal i32 @Dec_GraphIsVar(ptr noundef %0) #0 {
  %2 = alloca ptr, align 8
  store ptr %0, ptr %2, align 8
  %3 = load ptr, ptr %2, align 8
  %4 = getelementptr inbounds %struct.Dec_Graph_t_, ptr %3, i32 0, i32 5
  %5 = load i32, ptr %4, align 8
  %6 = lshr i32 %5, 1
  %7 = and i32 %6, 1073741823
  %8 = load ptr, ptr %2, align 8
  %9 = getelementptr inbounds %struct.Dec_Graph_t_, ptr %8, i32 0, i32 1
  %10 = load i32, ptr %9, align 4
  %11 = icmp ult i32 %7, %10
  %12 = zext i1 %11 to i32
  ret i32 %12
}

; Function Attrs: nounwind uwtable
define internal ptr @Abc_ObjNotCond(ptr noundef %0, i32 noundef %1) #0 {
  %3 = alloca ptr, align 8
  %4 = alloca i32, align 4
  store ptr %0, ptr %3, align 8
  store i32 %1, ptr %4, align 4
  %5 = load ptr, ptr %3, align 8
  %6 = ptrtoint ptr %5 to i64
  %7 = load i32, ptr %4, align 4
  %8 = icmp ne i32 %7, 0
  %9 = zext i1 %8 to i32
  %10 = sext i32 %9 to i64
  %11 = xor i64 %6, %10
  %12 = inttoptr i64 %11 to ptr
  ret ptr %12
}

; Function Attrs: nounwind uwtable
define internal i32 @Dec_GraphIsComplement(ptr noundef %0) #0 {
  %2 = alloca ptr, align 8
  store ptr %0, ptr %2, align 8
  %3 = load ptr, ptr %2, align 8
  %4 = getelementptr inbounds %struct.Dec_Graph_t_, ptr %3, i32 0, i32 5
  %5 = load i32, ptr %4, align 8
  %6 = and i32 %5, 1
  ret i32 %6
}

; Function Attrs: nounwind uwtable
define internal i32 @Dec_GraphIsConst(ptr noundef %0) #0 {
  %2 = alloca ptr, align 8
  store ptr %0, ptr %2, align 8
  %3 = load ptr, ptr %2, align 8
  %4 = getelementptr inbounds %struct.Dec_Graph_t_, ptr %3, i32 0, i32 0
  %5 = load i32, ptr %4, align 8
  ret i32 %5
}

; Function Attrs: nounwind uwtable
define ptr @Dec_GraphToNetwork(ptr noundef %0, ptr noundef %1) #0 {
  %3 = alloca ptr, align 8
  %4 = alloca ptr, align 8
  %5 = alloca ptr, align 8
  %6 = alloca ptr, align 8
  %7 = alloca ptr, align 8
  %8 = alloca ptr, align 8
  %9 = alloca i32, align 4
  store ptr %0, ptr %4, align 8
  store ptr %1, ptr %5, align 8
  store ptr null, ptr %8, align 8
  %10 = load ptr, ptr %5, align 8
  %11 = call i32 @Dec_GraphIsConst(ptr noundef %10)
  %12 = icmp ne i32 %11, 0
  br i1 %12, label %13, label %19

13:                                               ; preds = %2
  %14 = load ptr, ptr %4, align 8
  %15 = call ptr @Abc_AigConst1(ptr noundef %14)
  %16 = load ptr, ptr %5, align 8
  %17 = call i32 @Dec_GraphIsComplement(ptr noundef %16)
  %18 = call ptr @Abc_ObjNotCond(ptr noundef %15, i32 noundef %17)
  store ptr %18, ptr %3, align 8
  br label %94

19:                                               ; preds = %2
  %20 = load ptr, ptr %5, align 8
  %21 = call i32 @Dec_GraphIsVar(ptr noundef %20)
  %22 = icmp ne i32 %21, 0
  br i1 %22, label %23, label %31

23:                                               ; preds = %19
  %24 = load ptr, ptr %5, align 8
  %25 = call ptr @Dec_GraphVar(ptr noundef %24)
  %26 = getelementptr inbounds %struct.Dec_Node_t_, ptr %25, i32 0, i32 2
  %27 = load ptr, ptr %26, align 8
  %28 = load ptr, ptr %5, align 8
  %29 = call i32 @Dec_GraphIsComplement(ptr noundef %28)
  %30 = call ptr @Abc_ObjNotCond(ptr noundef %27, i32 noundef %29)
  store ptr %30, ptr %3, align 8
  br label %94

31:                                               ; preds = %19
  %32 = load ptr, ptr %5, align 8
  %33 = getelementptr inbounds %struct.Dec_Graph_t_, ptr %32, i32 0, i32 1
  %34 = load i32, ptr %33, align 4
  store i32 %34, ptr %9, align 4
  br label %35

35:                                               ; preds = %84, %31
  %36 = load i32, ptr %9, align 4
  %37 = load ptr, ptr %5, align 8
  %38 = getelementptr inbounds %struct.Dec_Graph_t_, ptr %37, i32 0, i32 2
  %39 = load i32, ptr %38, align 8
  %40 = icmp slt i32 %36, %39
  br i1 %40, label %41, label %45

41:                                               ; preds = %35
  %42 = load ptr, ptr %5, align 8
  %43 = load i32, ptr %9, align 4
  %44 = call ptr @Dec_GraphNode(ptr noundef %42, i32 noundef %43)
  store ptr %44, ptr %8, align 8
  br label %45

45:                                               ; preds = %41, %35
  %46 = phi i1 [ false, %35 ], [ true, %41 ]
  br i1 %46, label %47, label %87

47:                                               ; preds = %45
  %48 = load ptr, ptr %5, align 8
  %49 = load ptr, ptr %8, align 8
  %50 = getelementptr inbounds %struct.Dec_Node_t_, ptr %49, i32 0, i32 0
  %51 = load i32, ptr %50, align 8
  %52 = lshr i32 %51, 1
  %53 = and i32 %52, 1073741823
  %54 = call ptr @Dec_GraphNode(ptr noundef %48, i32 noundef %53)
  %55 = getelementptr inbounds %struct.Dec_Node_t_, ptr %54, i32 0, i32 2
  %56 = load ptr, ptr %55, align 8
  %57 = load ptr, ptr %8, align 8
  %58 = getelementptr inbounds %struct.Dec_Node_t_, ptr %57, i32 0, i32 0
  %59 = load i32, ptr %58, align 8
  %60 = and i32 %59, 1
  %61 = call ptr @Abc_ObjNotCond(ptr noundef %56, i32 noundef %60)
  store ptr %61, ptr %6, align 8
  %62 = load ptr, ptr %5, align 8
  %63 = load ptr, ptr %8, align 8
  %64 = getelementptr inbounds %struct.Dec_Node_t_, ptr %63, i32 0, i32 1
  %65 = load i32, ptr %64, align 4
  %66 = lshr i32 %65, 1
  %67 = and i32 %66, 1073741823
  %68 = call ptr @Dec_GraphNode(ptr noundef %62, i32 noundef %67)
  %69 = getelementptr inbounds %struct.Dec_Node_t_, ptr %68, i32 0, i32 2
  %70 = load ptr, ptr %69, align 8
  %71 = load ptr, ptr %8, align 8
  %72 = getelementptr inbounds %struct.Dec_Node_t_, ptr %71, i32 0, i32 1
  %73 = load i32, ptr %72, align 4
  %74 = and i32 %73, 1
  %75 = call ptr @Abc_ObjNotCond(ptr noundef %70, i32 noundef %74)
  store ptr %75, ptr %7, align 8
  %76 = load ptr, ptr %4, align 8
  %77 = getelementptr inbounds %struct.Abc_Ntk_t_, ptr %76, i32 0, i32 30
  %78 = load ptr, ptr %77, align 8
  %79 = load ptr, ptr %6, align 8
  %80 = load ptr, ptr %7, align 8
  %81 = call ptr @Abc_AigAnd(ptr noundef %78, ptr noundef %79, ptr noundef %80)
  %82 = load ptr, ptr %8, align 8
  %83 = getelementptr inbounds %struct.Dec_Node_t_, ptr %82, i32 0, i32 2
  store ptr %81, ptr %83, align 8
  br label %84

84:                                               ; preds = %47
  %85 = load i32, ptr %9, align 4
  %86 = add nsw i32 %85, 1
  store i32 %86, ptr %9, align 4
  br label %35, !llvm.loop !4

87:                                               ; preds = %45
  %88 = load ptr, ptr %8, align 8
  %89 = getelementptr inbounds %struct.Dec_Node_t_, ptr %88, i32 0, i32 2
  %90 = load ptr, ptr %89, align 8
  %91 = load ptr, ptr %5, align 8
  %92 = call i32 @Dec_GraphIsComplement(ptr noundef %91)
  %93 = call ptr @Abc_ObjNotCond(ptr noundef %90, i32 noundef %92)
  store ptr %93, ptr %3, align 8
  br label %94

94:                                               ; preds = %87, %23, %13
  %95 = load ptr, ptr %3, align 8
  ret ptr %95
}