; Function Attrs: nounwind uwtable
define ptr @Dec_GraphToNetwork(ptr noundef %0, ptr noundef readonly captures(none) %1) local_unnamed_addr #0 {
  %.val = load i32, ptr %1, align 8
  %.not = icmp eq i32 %.val, 0
  br i1 %.not, label %10, label %3

3:                                                ; preds = %2
  %4 = tail call ptr @Abc_AigConst1(ptr noundef %0) #7
  %5 = getelementptr i8, ptr %1, i64 24
  %.val27 = load i32, ptr %5, align 8
  %6 = and i32 %.val27, 1
  %7 = ptrtoint ptr %4 to i64
  %8 = zext nneg i32 %6 to i64
  %9 = xor i64 %8, %7
  br label %65

10:                                               ; preds = %2
  %11 = getelementptr i8, ptr %1, i64 4
  %.val30 = load i32, ptr %11, align 4
  %12 = getelementptr i8, ptr %1, i64 24
  %.val31 = load i32, ptr %12, align 8
  %13 = lshr i32 %.val31, 1
  %14 = and i32 %13, 1073741823
  %.not37 = icmp ult i32 %14, %.val30
  br i1 %.not37, label %21, label %.preheader

.preheader:                                       ; preds = %10
  %15 = getelementptr inbounds nuw i8, ptr %1, i64 8
  %16 = load i32, ptr %15, align 8
  %17 = icmp slt i32 %.val30, %16
  tail call void @llvm.assume(i1 %17)
  %18 = getelementptr i8, ptr %1, i64 16
  %19 = getelementptr inbounds nuw i8, ptr %0, i64 256
  %20 = zext nneg i32 %.val30 to i64
  br label %30

21:                                               ; preds = %10
  %22 = getelementptr i8, ptr %1, i64 16
  %.val35 = load ptr, ptr %22, align 8
  %23 = zext nneg i32 %14 to i64
  %24 = getelementptr inbounds nuw %struct.Dec_Node_t_, ptr %.val35, i64 %23, i32 2
  %25 = load ptr, ptr %24, align 8
  %26 = and i32 %.val31, 1
  %27 = ptrtoint ptr %25 to i64
  %28 = zext nneg i32 %26 to i64
  %29 = xor i64 %27, %28
  br label %65

30:                                               ; preds = %.preheader, %30
  %indvars.iv = phi i64 [ %20, %.preheader ], [ %indvars.iv.next, %30 ]
  %.val32 = load ptr, ptr %18, align 8
  %31 = getelementptr inbounds nuw %struct.Dec_Node_t_, ptr %.val32, i64 %indvars.iv
  %32 = load i32, ptr %31, align 8
  %33 = lshr i32 %32, 1
  %34 = and i32 %33, 1073741823
  %35 = zext nneg i32 %34 to i64
  %36 = getelementptr inbounds nuw %struct.Dec_Node_t_, ptr %.val32, i64 %35, i32 2
  %37 = load ptr, ptr %36, align 8
  %38 = and i32 %32, 1
  %39 = ptrtoint ptr %37 to i64
  %40 = zext nneg i32 %38 to i64
  %41 = xor i64 %40, %39
  %42 = inttoptr i64 %41 to ptr
  %43 = getelementptr inbounds nuw i8, ptr %31, i64 4
  %44 = load i32, ptr %43, align 4
  %45 = lshr i32 %44, 1
  %46 = and i32 %45, 1073741823
  %47 = zext nneg i32 %46 to i64
  %48 = getelementptr inbounds nuw %struct.Dec_Node_t_, ptr %.val32, i64 %47, i32 2
  %49 = load ptr, ptr %48, align 8
  %50 = and i32 %44, 1
  %51 = ptrtoint ptr %49 to i64
  %52 = zext nneg i32 %50 to i64
  %53 = xor i64 %52, %51
  %54 = inttoptr i64 %53 to ptr
  %55 = load ptr, ptr %19, align 8
  %56 = tail call ptr @Abc_AigAnd(ptr noundef %55, ptr noundef %42, ptr noundef %54) #7
  %57 = getelementptr inbounds nuw i8, ptr %31, i64 8
  store ptr %56, ptr %57, align 8
  %indvars.iv.next = add nuw nsw i64 %indvars.iv, 1
  %58 = load i32, ptr %15, align 8
  %59 = sext i32 %58 to i64
  %60 = icmp slt i64 %indvars.iv.next, %59
  br i1 %60, label %30, label %.critedge, !llvm.loop !4

.critedge:                                        ; preds = %30
  %.val29 = load i32, ptr %12, align 8
  %61 = and i32 %.val29, 1
  %62 = ptrtoint ptr %56 to i64
  %63 = zext nneg i32 %61 to i64
  %64 = xor i64 %63, %62
  br label %65

65:                                               ; preds = %.critedge, %21, %3
  %.025.in = phi i64 [ %9, %3 ], [ %29, %21 ], [ %64, %.critedge ]
  %.025 = inttoptr i64 %.025.in to ptr
  ret ptr %.025
}